target datalayout = "e-m:e-p270:32:32-p271:32:32-p272:64:64-i64:64-i128:128-f80:128-n8:16:32:64-S128"
target triple = "x86_64-pc-linux-gnu"

%struct.passwd = type { ptr, ptr, i32, i32, ptr, ptr, ptr }

@.str.230 = private unnamed_addr constant [2 x i8] c"w\00", align 1
@.str.231 = private unnamed_addr constant [31 x i8] c"Can't save PID to file %s: %s\0A\00", align 1
@.str.232 = private unnamed_addr constant [4 x i8] c"%d\0A\00", align 1
@.str.233 = private unnamed_addr constant [44 x i8] c"Can't change ownership of PID file %s '%s'\0A\00", align 1

; Function Attrs: nounwind uwtable
define internal i32 @writepid(ptr noundef %0) #0 {
  %2 = alloca i32, align 4
  %3 = alloca ptr, align 8
  %4 = alloca ptr, align 8
  %5 = alloca i32, align 4
  %6 = alloca ptr, align 8
  %7 = alloca i32, align 4
  store ptr %0, ptr %3, align 8
  %8 = call i32 @umask(i32 noundef 18) #10
  store i32 %8, ptr %5, align 4
  %9 = load ptr, ptr %3, align 8
  %10 = call noalias ptr @fopen(ptr noundef %9, ptr noundef @.str.230)
  store ptr %10, ptr %4, align 8
  %11 = icmp eq ptr %10, null
  br i1 %11, label %12, label %18

12:                                               ; preds = %1
  %13 = load ptr, ptr %3, align 8
  %14 = call ptr @__errno_location() #11
  %15 = load i32, ptr %14, align 4
  %16 = call ptr @strerror(i32 noundef %15) #10
  %17 = call i32 (i32, ptr, ...) @logg(i32 noundef 5, ptr noundef @.str.231, ptr noundef %13, ptr noundef %16)
  store i32 1, ptr %2, align 4
  br label %49

18:                                               ; preds = %1
  %19 = load ptr, ptr %4, align 8
  %20 = call i32 @getpid() #10
  %21 = call i32 (ptr, ptr, ...) @fprintf(ptr noundef %19, ptr noundef @.str.232, i32 noundef %20) #10
  %22 = load ptr, ptr %4, align 8
  %23 = call i32 @fclose(ptr noundef %22)
  br label %24

24:                                               ; preds = %18
  %25 = load i32, ptr %5, align 4
  %26 = call i32 @umask(i32 noundef %25) #10
  %27 = call i32 @geteuid() #10
  %28 = icmp eq i32 0, %27
  br i1 %28, label %29, label %48

29:                                               ; preds = %24
  %30 = call ptr @getpwuid(i32 noundef 0)
  store ptr %30, ptr %6, align 8
  %31 = load ptr, ptr %3, align 8
  %32 = load ptr, ptr %6, align 8
  %33 = getelementptr inbounds %struct.passwd, ptr %32, i32 0, i32 2
  %34 = load i32, ptr %33, align 8
  %35 = load ptr, ptr %6, align 8
  %36 = getelementptr inbounds %struct.passwd, ptr %35, i32 0, i32 3
  %37 = load i32, ptr %36, align 4
  %38 = call i32 @lchown(ptr noundef %31, i32 noundef %34, i32 noundef %37) #10
  store i32 %38, ptr %7, align 4
  %39 = load i32, ptr %7, align 4
  %40 = icmp ne i32 %39, 0
  br i1 %40, label %41, label %47

41:                                               ; preds = %29
  %42 = load ptr, ptr %3, align 8
  %43 = call ptr @__errno_location() #11
  %44 = load i32, ptr %43, align 4
  %45 = call ptr @strerror(i32 noundef %44) #10
  %46 = call i32 (i32, ptr, ...) @logg(i32 noundef 5, ptr noundef @.str.233, ptr noundef %42, ptr noundef %45)
  store i32 1, ptr %2, align 4
  br label %49

47:                                               ; preds = %29
  br label %48

48:                                               ; preds = %47, %24
  store i32 0, ptr %2, align 4
  br label %49

49:                                               ; preds = %48, %41, %12
  %50 = load i32, ptr %2, align 4
  ret i32 %50
}