; Function Attrs: nounwind uwtable
define internal fastcc noundef i32 @writepid(ptr noundef %0) unnamed_addr #0 {
  %2 = tail call i32 @umask(i32 noundef 18) #17
  %3 = tail call noalias ptr @fopen(ptr noundef %0, ptr noundef nonnull @.str.230)
  %4 = icmp eq ptr %3, null
  br i1 %4, label %.sink.split, label %5

5:                                                ; preds = %1
  %6 = tail call i32 @getpid() #17
  %7 = tail call i32 (ptr, ptr, ...) @fprintf(ptr noundef nonnull %3, ptr noundef nonnull @.str.232, i32 noundef %6) #17
  %8 = tail call i32 @fclose(ptr noundef nonnull %3)
  %9 = tail call i32 @umask(i32 noundef %2) #17
  %10 = tail call i32 @geteuid() #17
  %11 = icmp eq i32 %10, 0
  br i1 %11, label %12, label %23

12:                                               ; preds = %5
  %13 = tail call ptr @getpwuid(i32 noundef 0) #17
  %14 = getelementptr inbounds i8, ptr %13, i64 16
  %15 = load i32, ptr %14, align 8
  %16 = getelementptr inbounds i8, ptr %13, i64 20
  %17 = load i32, ptr %16, align 4
  %18 = tail call i32 @lchown(ptr noundef %0, i32 noundef %15, i32 noundef %17) #17
  %.not = icmp eq i32 %18, 0
  br i1 %.not, label %23, label %.sink.split

.sink.split:                                      ; preds = %12, %1
  %.str.233.sink = phi ptr [ @.str.231, %1 ], [ @.str.233, %12 ]
  %19 = tail call ptr @__errno_location() #18
  %20 = load i32, ptr %19, align 4
  %21 = tail call ptr @strerror(i32 noundef %20) #17
  %22 = tail call i32 (i32, ptr, ...) @logg(i32 noundef 5, ptr noundef nonnull %.str.233.sink, ptr noundef %0, ptr noundef %21) #17
  br label %23

23:                                               ; preds = %.sink.split, %5, %12
  %.0 = phi i32 [ 0, %12 ], [ 0, %5 ], [ 1, %.sink.split ]
  ret i32 %.0
}